(lp0
ccopy_reg
_reconstructor
p1
(c__main__
FlipkartItem
p2
c__builtin__
object
p3
Ntp4
Rp5
(dp6
S'_values'
p7
(dp8
S'laptop_rating'
p9
(lp10
V4.1
p11
aV4
p12
aV4.2
p13
aV4.5
p14
aV4.1
p15
aV4.7
p16
aV4.3
p17
ag12
aV4.1
p18
aV4.6
p19
aV4.3
p20
aV4.6
p21
aV4.1
p22
aV3.9
p23
aV4.2
p24
aV4.1
p25
aV3.3
p26
ag12
ag12
aV4.2
p27
aV4.2
p28
aV4.2
p29
ag12
aV4.6
p30
ag12
aV3
p31
aV4.1
p32
aV5
p33
ag12
ag12
ag31
ag31
ag12
ag12
ag33
ag12
ag31
ag31
asS'laptop_name'
p34
(lp35
ViBall CompBook M500 Celeron Dual Core - (4 GB/32 GB EMMC Storage/Windows 10 Home) M500 Laptop
p36
aViBall CompBook Celeron Dual Core - (3 GB/32 GB EMMC Storage/Windows 10 Home) Merit G9 Laptop
p37
aVAcer Aspire 3 Pentium Quad Core - (4 GB/500 GB HDD/Windows 10 Home) A315-32 / A315-33 Laptop
p38
aVLenovo Yoga 730 Core i7 8th Gen - (8 GB/512 GB SSD/Windows 10 Home) 730-13IKB 2 in 1 Laptop
p39
aVDell Inspiron 14 3000 Core i3 7th Gen - (4 GB/1 TB HDD/Linux) inspiron 3467 Laptop
p40
aVApple MacBook Air Core i5 5th Gen - (8 GB/128 GB SSD/Mac OS Sierra) MQD32HN/A A1466
p41
aVAcer Aspire 5 Core i5 7th Gen - (8 GB/1 TB HDD/Windows 10 Home/2 GB Graphics) A515-51G -5673 Laptop
p42
aVAsus X Series Core i3 7th Gen - (4 GB/1 TB HDD/Endless) X540UA-GQ703 Laptop
p43
aVLenovo Ideapad 330 Ryzen 5 Quad Core - (8 GB/1 TB HDD/DOS) 330-15ARR Laptop
p44
aVAcer Predator Helios 300 Core i7 8th Gen - (8 GB/1 TB HDD/128 GB SSD/Windows 10 Home/4 GB Graphics) PH...
p45
aVHP 15 Core i3 7th Gen - (8 GB/1 TB HDD/DOS) 15-da0297TU Laptop
p46
aVAcer Predator Helios 300 Core i5 8th Gen - (8 GB/1 TB HDD/128 GB SSD/Windows 10 Home/4 GB Graphics) PH...
p47
aVHP 15 APU Dual Core A9 - (4 GB/1 TB HDD/Windows 10 Home) 15-bw519AU Laptop
p48
aVLenovo Ideapad 320 APU Dual Core A6 - (4 GB/1 TB HDD/DOS) IP 320-15AST Laptop
p49
aVHP 15q Pentium Quad Core - (4 GB/1 TB HDD/Windows 10 Home) 15q - 15q-ds0005TU Laptop
p50
aVHP 15 Core i3 7th Gen - (4 GB/1 TB HDD/Windows 10 Home) 15-da0327TU Laptop
p51
aVHP 14S Core i5 8th Gen - (8 GB/1 TB HDD/Windows 10 Home) cs1000tu Laptop
p52
aVLenovo Ideapad 330 Core i3 6th Gen - (4 GB/1 TB HDD/DOS) 330-15IKB Laptop
p53
aVLenovo Ideapad 320 Core i3 6th Gen - (4 GB/1 TB HDD/Windows 10 Home) 320-14ISK Laptop
p54
aVLenovo Ideapad 330E Core i5 8th Gen - (8 GB/1 TB HDD/DOS/4 GB Graphics) 330-15IKB Laptop
p55
aVLenovo V Series APU Dual Core A4 7th Gen - (4 GB/1 TB HDD/Windows 10) V145 Laptop
p56
aVAcer Aspire 3 Core i3 8th Gen - (4 GB/1 TB HDD/Windows 10 Home) A315-53 Laptop
p57
aVHP 14q Core i3 7th Gen - (4 GB/1 TB HDD/Windows 10 Home) 14q-CS0005TU Thin and Light Laptop
p58
aVLenovo Ideapad 330 Core i3 7th Gen - (4 GB + 16 GB Optane/1 TB HDD/Windows 10 Home/2 GB Graphics) 330-...
p59
asS'laptop_price'
p60
(lp61
V\u20b910,990
p62
aV\u20b98,990
p63
aV\u20b917,990
p64
aV\u20b91,09,990
p65
aV\u20b925,990
p66
aV\u20b968,990
p67
aV\u20b938,990
p68
aV\u20b925,990
p69
aV\u20b929,990
p70
aV\u20b974,990
p71
aV\u20b938,000
p72
aV\u20b964,990
p73
aV\u20b922,990
p74
aV\u20b920,990
p75
aV\u20b924,990
p76
aV\u20b932,490
p77
aV\u20b946,999
p78
aV\u20b925,490
p79
aV\u20b926,990
p80
aV\u20b945,990
p81
aV\u20b920,890
p82
aV\u20b931,990
p83
aV\u20b930,990
p84
aV\u20b935,990
p85
assbag1
(g2
g3
Ntp86
Rp87
(dp88
g7
(dp89
g9
(lp90
V4.2
p91
aV4.1
p92
aV4.4
p93
aV4.9
p94
aV4.4
p95
aV4.5
p96
aV4.6
p97
aV4.6
p98
aV3.8
p99
aV3.9
p100
aV4.4
p101
aV3.9
p102
aV4.2
p103
aV4.3
p104
aV4.2
p105
aV4.2
p106
aV4.1
p107
aV4.2
p108
aV4.1
p109
ag12
aV4.1
p110
aV3.9
p111
aV4.2
p112
aV4.1
p113
ag33
ag12
aV3.9
p114
ag12
ag31
ag12
ag12
ag33
aV4.3
p115
ag33
ag33
aV3.9
p116
ag33
ag33
asg34
(lp117
VLenovo Ideapad 330 Core i5 8th Gen - (8 GB/1 TB HDD/Windows 10 Home/2 GB Graphics) 330-15IKB Laptop
p118
aVAsus Core i3 7th Gen - (4 GB/1 TB HDD/Windows 10 Home) X540UA-GQ683T Laptop
p119
aVAcer Swift 3 Core i5 8th Gen - (8 GB/1 TB HDD/128 GB SSD/Windows 10 Home/2 GB Graphics) SF315-52G Lapt...
p120
aVAsus ZenBook S Core i7 8th Gen - (16 GB/512 GB SSD/Windows 10 Home) UX391UA-ET012T Thin and Light Lapt...
p121
aVHP 15 Core i3 7th Gen - (4 GB/1 TB HDD/128 GB SSD/Windows 10 Home) 15Q-DS0027TU Laptop
p122
aVLenovo Yoga 730 Core i7 8th Gen - (8 GB/512 GB SSD/Windows 10 Home) 730-13IKB 2 in 1 Laptop
p123
aVAsus VivoBook Core i3 8th Gen - (8 GB/1 TB HDD/256 GB SSD/Windows 10 Home) S430UA-EB151T Thin and Ligh...
p124
aVHP Pavilion x360 Core i3 8th Gen - (4 GB/256 GB SSD/Windows 10 Home) 14-dh0107TU 2 in 1 Laptop
p125
aVLenovo Ideapad 330 APU Dual Core A6 - (4 GB/1 TB HDD/DOS) IP 330-15AST Laptop
p126
aVLenovo Ideapad 320 APU Dual Core A6 - (4 GB/1 TB HDD/DOS) IP 320-15AST Laptop
p127
aVDell Inspiron 15 5000 Series Core i3 8th Gen - (4 GB + 16 GB Optane/1 TB HDD/Windows 10 Home) 5570 Lap...
p128
aVLenovo Ideapad 330 Celeron Dual Core - (4 GB/500 GB HDD/Windows 10 Home) 330-15IGM Laptop
p129
aVLenovo Ideapad 330E Core i5 8th Gen - (8 GB/1 TB HDD/DOS/4 GB Graphics) 330-15IKB Laptop
p130
aVHP 15 Core i3 7th Gen - (4 GB/1 TB HDD/DOS/2 GB Graphics) 15-DA0073TX Laptop
p131
aVHP 15q Ryzen 3 Dual Core - (4 GB/1 TB HDD/Windows 10 Home) 15q-dy0004au Laptop
p132
aVLenovo Ideapad 330 APU Dual Core A6 - (4 GB/500 GB HDD/Windows 10 Home) 330-14AST Laptop
p133
aVAsus Core i3 6th Gen - (6 GB/1 TB HDD/Windows 10 Home) X540UA-GQ284T Laptop
p134
aVHP Pavilion x360 Core i3 8th Gen - (4 GB/1 TB HDD/8 GB SSD/Windows 10 Home) 14-cd0077TU 2 in 1 Laptop
p135
aVHP 15q Core i3 7th Gen - (4 GB/1 TB HDD/Windows 10 Home) 15q-ds0006TU Laptop
p136
aVLenovo Ideapad 330 Core i3 7th Gen - (4 GB + 16 GB Optane/1 TB HDD/Windows 10 Home/2 GB Graphics) 330-...
p137
aVHP 15 Pentium Quad Core - (4 GB/1 TB HDD/Windows 10 Home) 15-da0295TU Laptop
p138
aVAcer Aspire 3 Pentium Quad Core - (4 GB/500 GB HDD/Linux) A315-33 Laptop
p139
aVHP 15q Core i5 7th Gen - (8 GB/1 TB HDD/Windows 10 Home) 15q-ds0029TU Laptop
p140
aVHP 15 Core i5 8th Gen - (8 GB/1 TB HDD/Windows 10) DA1041TU Laptop
p141
asg60
(lp142
V\u20b949,990
p143
aV\u20b927,990
p144
aV\u20b959,990
p145
aV\u20b984,990
p146
aV\u20b934,990
p147
aV\u20b91,09,990
p148
aV\u20b944,990
p149
aV\u20b942,990
p150
aV\u20b919,990
p151
aV\u20b920,990
p152
aV\u20b935,990
p153
aV\u20b922,990
p154
aV\u20b945,990
p155
aV\u20b934,990
p156
aV\u20b927,490
p157
aV\u20b919,990
p158
aV\u20b929,445
p159
aV\u20b946,990
p160
aV\u20b932,990
p161
aV\u20b935,990
p162
aV\u20b923,900
p163
aV\u20b916,490
p164
aV\u20b944,990
p165
aV\u20b948,790
p166
assbag1
(g2
g3
Ntp167
Rp168
(dp169
g7
(dp170
g9
(lp171
V4.3
p172
aV4.1
p173
aV4.6
p174
aV4.7
p175
aV4.6
p176
aV4.4
p177
aV4.1
p178
ag12
aV4.3
p179
aV4.6
p180
aV4.6
p181
aV4.3
p182
aV4.7
p183
aV4.3
p184
aV4.5
p185
ag12
aV4.6
p186
aV4.6
p187
ag33
ag12
aV4.1
p188
ag31
ag31
aV4.3
p189
ag33
ag33
aV4.6
p190
ag12
ag33
aV4.7
p191
ag33
ag33
asg34
(lp192
VHP Pavilion x360 Core i5 8th Gen - (8 GB + 16 GB Optane/1 TB HDD/Windows 10 Home/2 GB Graphics) 14-cd0...
p193
aVLenovo Ideapad 720S Core i7 8th Gen - (8 GB/512 GB SSD/Windows 10 Home) 720S-13IKB Thin and Light Lapt...
p194
aVAcer Aspire 3 Ryzen 5 Quad Core - (4 GB/1 TB HDD/Windows 10 Home) A315-41 / A315-41G / A315-41-R45R La...
p195
aVAsus ROG Strix Core i5 8th Gen - (8 GB/1 TB HDD/256 GB SSD/Windows 10 Home/4 GB Graphics) GL503GE-EN26...
p196
aVAsus VivoBook S Series Core i7 8th Gen - (16 GB/1 TB HDD/256 GB SSD/Windows 10 Home/2 GB Graphics) S43...
p197
aVMicrosoft Surface Go Pentium Gold - (8 GB/128 GB SSD/Windows 10 Home in S Mode) 1824 2 in 1 Laptop
p198
aVAcer Nitro 5 Core i5 8th Gen - (8 GB + 16 GB Optane/1 TB HDD/Windows 10 Home/4 GB Graphics) AN515-52-5...
p199
aVAsus ZenBook 14 Core i5 8th Gen - (8 GB/512 GB SSD/Windows 10 Home/2 GB Graphics) UX433FN-A6124T Thin ...
p200
aVAsus VivoBook Ryzen 5 Quad Core - (4 GB/1 TB HDD/Windows 10 Home) X505ZA-EJ505TX505Z Thin and Light La...
p201
aVLenovo Ideapad 330 APU Dual Core A6 7th Gen - (4 GB/1 TB HDD/Windows 10 Home/512 MB Graphics) 81D600LA...
p202
aVAcer Spin 3 Core i3 6th Gen - (4 GB/500 GB HDD/Windows 10 Home) SP315-51-30Q5 2 in 1 Laptop
p203
aVAvita Liber Core i5 7th Gen - (8 GB/256 GB SSD/Windows 10 Home) NS14A1IN007P Thin and Light Laptop
p204
aVAsus VivoBook S Series Core i5 8th Gen - (8 GB/1 TB HDD/256 GB SSD/Windows 10 Home) S430FA-EB006T Lapt...
p205
aVAsus Vivobook 15 Core i3 8th Gen - (4 GB + 16 GB Optane/1 TB HDD/Windows 10 Home) X510UA-EJ1223T Thin ...
p206
aVAsus ZenBook 13 Core i5 8th Gen - (8 GB/512 GB SSD/Windows 10 Home) UX331UAL-EG011T Thin and Light Lap...
p207
aVAvita Liber Core i5 7th Gen - (8 GB/128 GB SSD/Windows 10 Home) NS14A1IN501P Thin and Light Laptop
p208
aVAcer Aspire 3 Core i3 8th Gen - (4 GB + 16 GB Optane/1 TB HDD/Windows 10 Home) A315-53 Laptop
p209
aVAsus Vivobook Core i5 8th Gen - (4 GB + 16 GB Optane/1 TB HDD/Windows 10 Home/2 GB Graphics) X510UF-EJ...
p210
aVAsus Vivobook Celeron Dual Core 8th Gen - (2 GB/500 GB HDD/Windows 10 Home) E203MAH-FD004T Thin and Li...
p211
aVHP Envy x360 AG Series Ryzen 5 Quad Core - (8 GB/256 GB SSD/Windows 10 Home) 13-AG0035AU 2 in 1 Laptop
p212
aVHP Pavilion x360 Core i5 8th Gen - (8 GB/1 TB HDD/128 GB SSD/Windows 10 Home) 14-cd0087TU 2 in 1 Lapto...
p213
aVAvita Liber Core i5 7th Gen - (8 GB/512 GB SSD/Windows 10 Home) NS13A1IN014P Thin and Light Laptop
p214
aVLenovo Ideapad 130 Core i3 6th Gen - (4 GB/1 TB HDD/DOS/2 GB Graphics) 130-15IKB Laptop
p215
aVAsus VivoBook S Series Core i5 8th Gen - (8 GB/1 TB HDD/256 GB SSD/Windows 10 Home) S430FA-EB156T Lapt...
p216
asg60
(lp217
V\u20b972,991
p218
aV\u20b995,695
p219
aV\u20b930,990
p220
aV\u20b981,990
p221
aV\u20b989,990
p222
aV\u20b949,999
p223
aV\u20b958,990
p224
aV\u20b980,990
p225
aV\u20b931,890
p226
aV\u20b922,998
p227
aV\u20b936,990
p228
aV\u20b945,990
p229
aV\u20b964,990
p230
aV\u20b936,990
p231
aV\u20b975,990
p232
aV\u20b945,990
p233
aV\u20b932,990
p234
aV\u20b947,990
p235
aV\u20b919,990
p236
aV\u20b971,990
p237
aV\u20b972,990
p238
aV\u20b952,990
p239
aV\u20b927,990
p240
aV\u20b964,990
p241
assbag1
(g2
g3
Ntp242
Rp243
(dp244
g7
(dp245
g9
(lp246
V4.2
p247
aV4.5
p248
aV4.4
p249
aV4.4
p250
aV4.3
p251
aV4.3
p252
aV4.3
p253
aV3.9
p254
aV4.2
p255
aV4.1
p256
aV4.2
p257
aV4.3
p258
aV3.7
p259
aV4.2
p260
aV2.8
p261
aV4.2
p262
aV3.9
p263
ag12
aV4.2
p264
aV4.4
p265
ag12
ag12
ag33
aV3.7
p266
ag33
ag33
aV4.3
p267
ag33
ag33
aV4.3
p268
ag33
ag33
aV4.4
p269
ag33
ag33
asg34
(lp270
VAsus Vivobook Core i3 7th Gen - (8 GB/1 TB HDD/Windows 10) X507UA-EJ274T Laptop
p271
aVLenovo Yoga 730 Core i7 8th Gen - (8 GB/512 GB SSD/Windows 10 Home) 730-13IKB 2 in 1 Laptop
p272
aVDell G3 Series Core i7 8th Gen - (8 GB/1 TB HDD/128 GB SSD/Windows 10 Home/4 GB Graphics) 3579 Gaming ...
p273
aVHP Pavilion x360 Core i5 8th Gen - (8 GB/1 TB HDD/8 GB SSD/Windows 10 Home/2 GB Graphics) 14-cd0051TX ...
p274
aVHP 15 Core i3 7th Gen - (4 GB/1 TB HDD/DOS) 15-da0296tu Laptop
p275
aVAcer Aspire 3 Pentium Quad Core - (4 GB/1 TB HDD/Windows 10 Home) A315-32 Laptop
p276
aVHP 15q Core i5 8th Gen - (8 GB/1 TB HDD/DOS) 15q-ds0009TU Laptop
p277
aVLenovo Ideapad 320 APU Dual Core A6 - (4 GB/1 TB HDD/DOS) IP 320-15AST Laptop
p278
aVHP Pavilion x360 Core i3 8th Gen - (4 GB/256 GB SSD/Windows 10 Home) 14-dh0101TU 2 in 1 Laptop
p279
aVHP DA Core i3 7th Gen - (8 GB/1 TB HDD/Windows 10 Home/2 GB Graphics) DA0070TX Laptop
p280
aVHP 15g Core i3 7th Gen - (4 GB/1 TB HDD/Windows 10 Home) 15g-br004tu Laptop
p281
aVLenovo Ideapad 330 APU Dual Core A6 - (4 GB/500 GB HDD/Windows 10 Home) 330-14AST Laptop
p282
aVDell Vostro 15 3000 Core i3 6th Gen - (4 GB/1 TB HDD/Windows 10 Home) 3568 Laptop
p283
aVAsus Vivobook Core i3 7th Gen - (4 GB/1 TB HDD/Windows 10 Home) X507UA-EJ836T Thin and Light Laptop
p284
aVAsus VivoBook APU Dual Core A9 - (4 GB/500 GB HDD/Windows 10 Home) X542BA-GQ024T Laptop
p285
aVAcer Swift 3 Core i3 7th Gen - (4 GB/256 GB SSD/Linux) SF314-52 / SF314-52G Laptop
p286
aVDell Inspiron 15 3000 Series Core i5 8th Gen - (4 GB/1 TB HDD/Windows 10 Home) 3576 Laptop
p287
aVLenovo Ideapad 330E Core i5 8th Gen - (8 GB/1 TB HDD/DOS/4 GB Graphics) 330-15IKB Laptop
p288
aVHP G6 APU Dual Core A9 - (4 GB/1 TB HDD/DOS) 245-G6 Laptop
p289
aVIball C Series Atom - (2 GB/32 GB EMMC Storage/Windows 10) Compbook Laptop
p290
aVHP 14 Core i5 8th Gen - (8 GB/1 TB HDD/128 GB SSD/Windows 10 Home/2 GB Graphics) 14-ce1001TX Laptop
p291
aVLenovo Ideapad 330 Core i3 7th Gen - (4 GB + 16 GB Optane/1 TB HDD/Windows 10 Home/2 GB Graphics) 330-...
p292
aVLenovo Ideapad 330 APU Dual Core E2 - (4 GB/500 GB HDD/Windows 10 Home) 330-15AST Laptop
p293
aVApple MacBook Air Core i5 8th Gen - (8 GB/128 GB SSD/Mac OS Mojave) MREE2HN/A
p294
asg60
(lp295
V\u20b932,500
p296
aV\u20b91,09,990
p297
aV\u20b994,948
p298
aV\u20b974,990
p299
aV\u20b930,200
p300
aV\u20b929,500
p301
aV\u20b943,990
p302
aV\u20b920,990
p303
aV\u20b946,999
p304
aV\u20b940,490
p305
aV\u20b933,990
p306
aV\u20b919,990
p307
aV\u20b930,990
p308
aV\u20b929,990
p309
aV\u20b921,990
p310
aV\u20b941,999
p311
aV\u20b942,690
p312
aV\u20b945,990
p313
aV\u20b921,390
p314
aV\u20b910,699
p315
aV\u20b969,990
p316
aV\u20b935,990
p317
aV\u20b922,490
p318
aV\u20b91,06,990
p319
assbag1
(g2
g3
Ntp320
Rp321
(dp322
g7
(dp323
g9
(lp324
V4.1
p325
aV4.2
p326
aV4.2
p327
aV4.7
p328
ag12
aV4.2
p329
aV4.3
p330
aV4.3
p331
aV4.4
p332
aV4.1
p333
aV4.1
p334
aV4.2
p335
ag12
aV4.2
p336
aV4.4
p337
aV4.5
p338
ag33
aV4.6
p339
aV3.3
p340
ag33
aV4.2
p341
ag33
ag12
ag33
ag33
ag33
aV4.7
p342
ag12
ag12
ag33
ag33
ag33
aV4.1
p343
ag12
ag12
asg34
(lp344
VDell Inspiron 15 5000 Ryzen 5 Quad Core - (8 GB/1 TB HDD/Windows 10 Home) 5575 Laptop
p345
aVHP 15q Core i3 7th Gen - (4 GB/1 TB HDD/DOS) 15q-bu024TU Laptop
p346
aVLenovo IdeaPad 330 Core i5 8th Gen - (8 GB/1 TB HDD/Windows 10) 81DE008PIN Laptop
p347
aVAvita Liber Core i5 7th Gen - (8 GB/256 GB SSD/Windows 10 Home) NS14A1IN007P Thin and Light Laptop
p348
aVLG Gram Core i5 8th Gen - (8 GB/256 GB SSD/Windows 10 Home) 14Z980 Laptop
p349
aVLenovo MIIX 320 Atom - (4 GB/128 GB EMMC Storage/Windows 10 Home) 80XF00DFIN 2 in 1 Laptop
p350
aVAcer Aspire 3 Core i3 7th Gen - (4 GB/1 TB HDD/Windows 10 Home) A315-51z Laptop
p351
aVAvita Liber Core i5 7th Gen - (8 GB/128 GB SSD/Windows 10 Home) NS14A1IN501P Thin and Light Laptop
p352
aVLenovo Ideapad 330s Core i3 8th Gen - (4 GB/1 TB HDD/Windows 10 Home) 330S-14IKB Laptop
p353
aVMicrosoft Surface Pro Core i5 7th Gen - (8 GB/128 GB SSD/Windows 10 Pro) M1796 2 in 1 Laptop
p354
aVLenovo Ideapad 330 Core i7 8th Gen - (8 GB/1 TB HDD/Windows 10 Home/4 GB Graphics) 330-15IKB Laptop
p355
aVLenovo Legion Y530 Core i7 8th Gen - (8 GB/1 TB HDD/128 GB SSD/Windows 10 Home/4 GB Graphics) Y530-15I...
p356
aVHP Imprint Pentium Quad Core - (4 GB/1 TB HDD/DOS) 15-BS545TU Laptop
p357
aVAvita Liber Core i5 7th Gen - (8 GB/512 GB SSD/Windows 10 Home) NS13A1IN014P Thin and Light Laptop
p358
aVHP 15 Core i5 8th Gen - (8 GB/256 GB SSD/Windows 10 Home) 15Q-DS1000TU Thin and Light Laptop
p359
aVDell Vostro Core i3 6th Gen - (4 GB/1 TB HDD/Windows 10) 3568 Laptop
p360
aVHP 15 Core i3 6th Gen - (8 GB/1 TB HDD/DOS/2 GB Graphics) 15-BS658TX Laptop
p361
aVAvita Liber Core i5 7th Gen - (8 GB/256 GB SSD/Windows 10 Home) NS13A1IN006P Thin and Light Laptop
p362
aVAsus FX503 Core i7 7th Gen - (8 GB/1 TB HDD/Windows 10 Home/4 GB Graphics) FX503VD-DM111T Gaming Lapto...
p363
aVMSI GE Core i7 8th Gen - (16 GB/1 TB HDD/512 GB SSD/Windows 10 Home/8 GB Graphics) GE73 Raider RGB 8RF...
p364
aVDell G7 Series Core i7 8th Gen - (16 GB/1 TB HDD/128 GB SSD/Windows 10 Home/6 GB Graphics) 7588 Gaming...
p365
aVAsus Vivobook Core i5 8th Gen - (8 GB/1 TB HDD/256 GB SSD/Windows 10 Home/2 GB Graphics) X510UN-EJ460T...
p366
aVAsus Vivobook Core i5 8th Gen - (8 GB/256 GB SSD/Windows 10 Home/2 GB Graphics) X507UF-EJ102TX507UF Th...
p367
aVAvita Liber Core i5 7th Gen - (8 GB/512 GB SSD/Windows 10 Home) NS13A1IN015P Thin and Light Laptop
p368
asg60
(lp369
V\u20b947,250
p370
aV\u20b928,990
p371
aV\u20b945,290
p372
aV\u20b945,990
p373
aV\u20b969,990
p374
aV\u20b928,200
p375
aV\u20b929,990
p376
aV\u20b945,990
p377
aV\u20b937,777
p378
aV\u20b973,990
p379
aV\u20b963,990
p380
aV\u20b91,04,290
p381
aV\u20b923,490
p382
aV\u20b952,990
p383
aV\u20b950,990
p384
aV\u20b930,989
p385
aV\u20b936,990
p386
aV\u20b958,990
p387
aV\u20b969,990
p388
aV\u20b91,69,990
p389
aV\u20b91,31,602
p390
aV\u20b959,990
p391
aV\u20b950,990
p392
aV\u20b952,990
p393
assbag1
(g2
g3
Ntp394
Rp395
(dp396
g7
(dp397
g9
(lp398
g12
aV4.5
p399
aV4.5
p400
ag12
ag33
aV4.7
p401
aV3.9
p402
aV4.2
p403
aV4.2
p404
aV4.3
p405
aV4.2
p406
ag12
aV2
p407
aV4.2
p408
ag33
aV4.1
p409
aV3.9
p410
ag12
ag12
ag12
ag33
aV4.2
p411
ag33
ag31
aV4.2
p412
ag33
ag33
ag12
ag33
ag33
aV4.5
p413
ag12
ag31
asg34
(lp414
VAsus APU Quad Core E2 - (4 GB/500 GB HDD/Windows 10 Home) X540YA-XO760T Laptop
p415
aVHP Pavilion Core i7 7th Gen - (8 GB/2 TB HDD/Windows 10 Home/4 GB Graphics) 15-CS1052TX Thin and Light...
p416
aVAsus ROG Strix Core i5 8th Gen - (8 GB/1 TB HDD/128 GB SSD/Windows 10 Home/4 GB Graphics) GL503GE-EN16...
p417
aVLenovo Yoga 730 Core i7 8th Gen - (8 GB/512 GB SSD/Windows 10 Home) 730-13IKB 2 in 1 Laptop
p418
aVNexstgo Core i5 8th Gen - (8 GB/256 GB SSD/Windows 10 Pro) NX101 Thin and Light Laptop
p419
aVNexstgo Core i7 8th Gen - (8 GB/256 GB SSD/Windows 10 Pro) NX101 Thin and Light Laptop
p420
aVAsus TUF Series Core i7 8th Gen - (8 GB/1 TB HDD/256 GB SSD/Windows 10 Home/4 GB Graphics) FX505GE-BQ0...
p421
aVAsus ZenBook Pro 15 Core i9 8th Gen - (16 GB/1 TB SSD/Windows 10 Home/4 GB Graphics) UX580GE-E2032T La...
p422
aVHP Envy 13 Core i5 8th Gen - (8 GB/256 GB SSD/Windows 10 Home/2 GB Graphics) 13-ah0043tx Thin and Ligh...
p423
aVLenovo Ideapad 320 APU Dual Core A6 - (4 GB/1 TB HDD/DOS) IP 320-15AST Laptop
p424
aVNexstgo Core i5 8th Gen - (16 GB/512 GB SSD/Windows 10 Pro) NX101 Thin and Light Laptop
p425
aVAsus VIVOBOOK Core i3 7th Gen - (4 GB/1 TB HDD/DOS) X441UA-GA508 Laptop
p426
aVNexstgo Core i7 8th Gen - (8 GB/1 TB HDD/256 GB SSD/Windows 10 Pro) NX201 Laptop
p427
aVLenovo Ideapad 330 APU Dual Core A6 - (4 GB/500 GB HDD/Windows 10 Home) 330-14AST Laptop
p428
aVLenovo Core i5 7th Gen - (8 GB/1 TB HDD/DOS/2 GB Graphics) IP 320-15IKB Laptop
p429
aVDell Vostro 14 3000 Core i5 8th Gen - (8 GB/1 TB HDD/Ubuntu) 3478 Laptop
p430
aVHP 15q Celeron Dual Core - (4 GB/1 TB HDD/Windows 10 Home) 15q-bu031TU Laptop
p431
aVLenovo Core i7 7th Gen - (8 GB/256 GB SSD/Windows 10 Home) IP 720S Thin and Light Laptop
p432
aVNexstgo Core i7 8th Gen - (16 GB/512 GB SSD/Windows 10 Pro) NX101 Thin and Light Laptop
p433
aVLenovo Ideapad 330E Core i5 8th Gen - (8 GB/1 TB HDD/DOS/4 GB Graphics) 330-15IKB Laptop
p434
aVDell XPS 13 Core i5 8th Gen - (8 GB/256 GB SSD/Windows 10 Home) R5N6F Thin and Light Laptop
p435
aVLenovo Ideapad 320E Core i5 7th Gen - (4 GB/1 TB HDD/Windows 10 Home/2 GB Graphics) 320e-15ikb d Lapto...
p436
aVLenovo Ideapad Core i5 7th Gen - (4 GB/1 TB HDD/Windows 10 Home) IP 320E-15IKB Laptop
p437
aVLenovo Ideapad 330 Core i3 7th Gen - (4 GB + 16 GB Optane/1 TB HDD/Windows 10 Home/2 GB Graphics) 330-...
p438
asg60
(lp439
V\u20b916,990
p440
aV\u20b978,490
p441
aV\u20b967,990
p442
aV\u20b91,09,990
p443
aV\u20b979,990
p444
aV\u20b986,990
p445
aV\u20b989,990
p446
aV\u20b92,09,990
p447
aV\u20b981,990
p448
aV\u20b920,990
p449
aV\u20b997,990
p450
aV\u20b927,990
p451
aV\u20b986,990
p452
aV\u20b919,990
p453
aV\u20b940,990
p454
aV\u20b937,990
p455
aV\u20b924,820
p456
aV\u20b993,082
p457
aV\u20b91,02,990
p458
aV\u20b945,990
p459
aV\u20b996,899
p460
aV\u20b953,590
p461
aV\u20b951,890
p462
aV\u20b935,990
p463
assbag1
(g2
g3
Ntp464
Rp465
(dp466
g7
(dp467
g9
(lp468
g12
ag12
aV4.3
p469
aV3.9
p470
aV3.9
p471
aV4.1
p472
aV4.3
p473
aV4.6
p474
aV4.2
p475
aV4.1
p476
aV4.2
p477
aV4.2
p478
ag12
aV4.4
p479
ag12
aV3.6
p480
ag33
ag12
ag12
ag33
ag33
ag33
ag33
aV4.6
p481
ag33
ag12
aV3.9
p482
ag12
ag31
aV3.9
p483
ag12
ag12
asg34
(lp484
VLenovo Core i7 7th Gen - (8 GB/1 TB HDD/Windows 10 Home/4 GB Graphics) IP 520 Laptop
p485
aVLenovo Core i5 7th Gen - (8 GB/1 TB HDD/Windows 10 Home/4 GB Graphics) IP 520 Laptop
p486
aVAcer Swift 3 Core i5 8th Gen - (8 GB/256 GB SSD/Windows 10 Home) SF313-51 Thin and Light Laptop
p487
aVLenovo Ideapad 520 Core i5 8th Gen - (4 GB/1 TB HDD/Windows 10 Home/2 GB Graphics) 520-15IKB Laptop
p488
aVLenovo Ideapad 320 Core i5 7th Gen - (8 GB/2 TB HDD/DOS/4 GB Graphics) IP 320-15IKB Laptop
p489
aVAvita Liber Core i5 7th Gen - (8 GB/256 GB SSD/Windows 10 Home) NS14A1IN007P Thin and Light Laptop
p490
aVHP 15 APU Dual Core A9 - (4 GB/500 GB HDD/Windows 10 Home) 15-BW523AU Laptop
p491
aVDell Inspiron 14 3000 Core i3 6th Gen - (4 GB/1 TB HDD/Windows 10 Home) 3467 Laptop
p492
aVHP 15q Core i3 7th Gen - (4 GB/1 TB HDD/Windows 10 Home) 15q-bu039TU Laptop
p493
aVAvita Liber Core i5 7th Gen - (8 GB/128 GB SSD/Windows 10 Home) NS14A1IN501P Thin and Light Laptop
p494
aVAsus ZenBook 13 Core i7 8th Gen - (8 GB/512 GB SSD/Windows 10 Home) UX331UAL-EG031T Thin and Light Lap...
p495
aVLenovo Core i5 7th Gen - (8 GB/1 TB HDD/Windows 10 Home/2 GB Graphics) Ideapad 510 Laptop
p496
aVLenovo Ideapad 330 Ryzen 3 Dual Core - (4 GB/1 TB HDD/Windows 10 Home) 330-15ARR Laptop
p497
aVLenovo Ideapad 330 APU Dual Core A9 - (4 GB/1 TB HDD/DOS/2 GB Graphics) 330-15AST Laptop
p498
aVDell Vostro 14 3000 Core i5 8th Gen - (8 GB/1 TB HDD/Windows 10 Home) 3478 Laptop
p499
aVAvita Liber Core i5 7th Gen - (8 GB/512 GB SSD/Windows 10 Home) NS13A1IN014P Thin and Light Laptop
p500
aVHP 15q Core i5 7th Gen - (4 GB/1 TB HDD/Windows 10 Home) 15q-ds0028TU Laptop
p501
aVAlienware 15 Core i9 8th Gen - (32 GB/1 TB HDD/1 TB SSD/Windows 10 Home/8 GB Graphics) AW159321TB8S Ga...
p502
aVLenovo IdeaPad Pentium Quad Core - (4 GB/1 TB HDD/DOS) 110-15IBR Laptop
p503
aVAvita Liber Core i5 7th Gen - (8 GB/256 GB SSD/Windows 10 Home) NS13A1IN006P Thin and Light Laptop
p504
aVAcer Spin 7 Core i7 7th Gen - (8 GB/256 GB SSD/Windows 10 Home) SP714-51 Laptop
p505
aVAsus X Series Core i3 6th Gen - (4 GB/1 TB HDD/DOS) X541UA-DM1233D Laptop
p506
aVLenovo Ideapad 330s Core i3 8th Gen - (4 GB/1 TB HDD/Windows 10 Home) 81F401FVIN Laptop
p507
aVAsus ZenBook 13 Core i7 8th Gen - (8 GB/512 GB SSD/Windows 10 Home) UX333FA-A4116T Thin and Light Lapt...
p508
asg60
(lp509
V\u20b972,222
p510
aV\u20b964,715
p511
aV\u20b953,990
p512
aV\u20b955,139
p513
aV\u20b956,690
p514
aV\u20b945,990
p515
aV\u20b929,183
p516
aV\u20b929,990
p517
aV\u20b935,616
p518
aV\u20b945,990
p519
aV\u20b984,990
p520
aV\u20b957,309
p521
aV\u20b927,990
p522
aV\u20b927,155
p523
aV\u20b943,990
p524
aV\u20b952,990
p525
aV\u20b938,990
p526
aV\u20b93,21,609
p527
aV\u20b923,987
p528
aV\u20b958,990
p529
aV\u20b91,19,990
p530
aV\u20b926,799
p531
aV\u20b938,998
p532
aV\u20b984,990
p533
assbag1
(g2
g3
Ntp534
Rp535
(dp536
g7
(dp537
g9
(lp538
V4.5
p539
aV3.9
p540
ag33
ag31
aV4.2
p541
aV4.6
p542
aV4.2
p543
aV4.6
p544
ag33
aV4.3
p545
aV4.3
p546
ag12
ag12
ag12
ag33
aV4.3
p547
ag33
ag33
aV4.6
p548
ag33
ag12
aV3.9
p549
ag12
ag12
ag33
ag33
ag33
asg34
(lp550
VLenovo Legion Y520 Core i7 7th Gen - (16 GB/1 TB HDD/128 GB SSD/Windows 10 Home/4 GB Graphics) Y520-15...
p551
aVLenovo Yoga 730 Core i7 8th Gen - (8 GB/512 GB SSD/Windows 10 Home) 730-13IKB 2 in 1 Laptop
p552
aVAcer Core i7 6th Gen - (16 GB/1 TB HDD/128 GB SSD/Windows 10 Home/4 GB Graphics) G9-591 Gaming Laptop
p553
aVAlienware 17 Core i7 8th Gen - (16 GB/1 TB HDD/512 GB SSD/Windows 10 Home/8 GB Graphics) AW177161TB8S ...
p554
aVAcer Spin Core i5 8th Gen - (8 GB/256 GB SSD/Windows 10 Home) SP513-52N Laptop
p555
aVLenovo Ideapad 320 APU Dual Core A6 - (4 GB/1 TB HDD/DOS) IP 320-15AST Laptop
p556
aVAsus ZenBook 13 Core i5 8th Gen - (8 GB/512 GB SSD/Windows 10 Home) UX333FA-A4117T Thin and Light Lapt...
p557
aVHP Spectre x360 Core i5 8th Gen - (8 GB/256 GB SSD/Windows 10 Pro) 13-ap0121TU 2 in 1 Laptop
p558
aVMSI Core i7 8th Gen - (16 GB/1 TB HDD/256 GB SSD/Windows 10 Home/6 GB Graphics) GL73 Gaming Laptop
p559
aVAsus Vivobook Core i7 8th Gen - (8 GB/1 TB HDD/Windows 10 Home/2 GB Graphics) X510UN-EJ330T Laptop
p560
aVLenovo Ideapad 330 Core i5 8th Gen - (4 GB/1 TB HDD/Windows 10 Home/512 MB Graphics) Ideapad 330-151KB...
p561
aVLenovo Ideapad 330 APU Dual Core A6 - (4 GB/500 GB HDD/Windows 10 Home) 330-14AST Laptop
p562
aVAsus VivoBook S14 Core i7 8th Gen - (8 GB/1 TB HDD/256 GB SSD/Windows 10 Home) S410UA-EB720T Thin and ...
p563
aVAcer Aspire Core i3 8th Gen - (4 GB/1 TB HDD/Windows 10) E5-476 Laptop
p564
aVHP Notebook Core i7 8th Gen - (8 GB/1 TB HDD/Windows 10/4 GB Graphics) 15G-BR108TX Laptop
p565
aVLenovo Ideapad 330E Core i5 8th Gen - (8 GB/1 TB HDD/DOS/4 GB Graphics) 330-15IKB Laptop
p566
aVDell Inspiron 13 7000 Core i5 8th Gen - (8 GB/256 GB SSD/Windows 10 Home) 7373 2 in 1 Laptop
p567
aVMSI Raider Core i7 8th Gen - (16 GB/1 TB HDD/512 GB SSD/Windows 10 Home/8 GB Graphics) GE63 Gaming Lap...
p568
aVAlienware 17 Core i9 8th Gen - (32 GB/1 TB HDD/1 TB SSD/Windows 10 Home/8 GB Graphics) AW179321TB8S Ga...
p569
aVAsus TUF Core i5 8th Gen - (8 GB/1 TB HDD/128 GB SSD/Windows 10 Home/6 GB Graphics) FX504GM-E4112T Gam...
p570
aVAsus F560UD Core i5 8th Gen - (8 GB/1 TB HDD/Windows 10 Home/4 GB Graphics) F560UD-BQ237T Gaming Lapto...
p571
aVLenovo Ideapad 330 Core i3 7th Gen - (4 GB + 16 GB Optane/1 TB HDD/Windows 10 Home/2 GB Graphics) 330-...
p572
aVApple MacBook Pro Core i5 8th Gen - (8 GB/512 GB SSD/Mac OS Mojave) MR9R2HN/A
p573
aVAcer Predator 15 Core i7 7th Gen - (16 GB/1 TB HDD/256 GB SSD/Windows 10 Home/6 GB Graphics) G9-593 Ga...
p574
asg60
(lp575
V\u20b999,159
p576
aV\u20b91,09,990
p577
aV\u20b91,79,990
p578
aV\u20b92,29,159
p579
aV\u20b952,500
p580
aV\u20b920,990
p581
aV\u20b973,990
p582
aV\u20b91,51,133
p583
aV\u20b91,58,990
p584
aV\u20b963,990
p585
aV\u20b942,999
p586
aV\u20b919,990
p587
aV\u20b981,990
p588
aV\u20b931,590
p589
aV\u20b969,990
p590
aV\u20b945,990
p591
aV\u20b981,714
p592
aV\u20b91,94,990
p593
aV\u20b93,49,817
p594
aV\u20b987,990
p595
aV\u20b959,980
p596
aV\u20b935,990
p597
aV\u20b91,86,500
p598
aV\u20b91,59,703
p599
assbag1
(g2
g3
Ntp600
Rp601
(dp602
g7
(dp603
g9
(lp604
V4.4
p605
aV4.3
p606
aV4.6
p607
aV4.6
p608
aV4.1
p609
aV4.3
p610
aV4.8
p611
ag12
aV3.5
p612
aV4.2
p613
aV4.4
p614
ag33
aV4.5
p615
aV4.9
p616
aV3.8
p617
aV4.4
p618
ag33
ag33
ag33
ag33
ag33
aV4.3
p619
ag33
ag12
aV4.1
p620
ag33
ag33
aV3.8
p621
ag33
ag33
asg34
(lp622
VAsus TUF Core i5 8th Gen - (8 GB/1 TB HDD/Windows 10 Home/4 GB Graphics) FX504GD-E4021T Gaming Laptop
p623
aVAvita Liber Core i5 7th Gen - (8 GB/256 GB SSD/Windows 10 Home) NS14A1IN007P Thin and Light Laptop
p624
aVDell Vostro 15 3000 Core i3 6th Gen - (4 GB/1 TB HDD/Linux) 3568 Laptop
p625
aVDell Inspiron 15 7000 Core i7 8th Gen - (8 GB/1 TB HDD/256 GB SSD/Windows 10 Home/4 GB Graphics) 7570 ...
p626
aVLenovo Ideapad 330 Core i5 8th Gen - (8 GB/1 TB HDD/Windows 10 Home/4 GB Graphics) 330-15IKB Laptop
p627
aVAsus F570ZD Ryzen 5 Quad Core - (8 GB/1 TB HDD/Windows 10 Home/4 GB Graphics) F570ZD-DM226TF570ZD Lapt...
p628
aVAsus Core i5 8th Gen - (4 GB/1 TB HDD/Windows 10 Home) X540UA-DM1027T Laptop
p629
aVAvita Liber Core i5 7th Gen - (8 GB/128 GB SSD/Windows 10 Home) NS14A1IN501P Thin and Light Laptop
p630
aVApple MacBook Pro Core i7 7th Gen - (16 GB/512 GB SSD/Mac OS Sierra/2 GB Graphics) MPTT2HN/A
p631
aVHP CE Core i5 8th Gen - (8 GB/256 GB SSD/Windows 10 Home/2 GB Graphics) CE1000TX Thin and Light Laptop
p632
aVAsus ROG Strix Hero Edition Core i7 7th Gen - (16 GB/1 TB HDD/128 GB SSD/Windows 10 Home/4 GB Graphics...
p633
aVAvita Liber Core i5 7th Gen - (8 GB/512 GB SSD/Windows 10 Home) NS13A1IN014P Thin and Light Laptop
p634
aVHP Omen Core i5 7th Gen - (8 GB/1 TB HDD/128 GB SSD/Windows 10 Home/6 GB Graphics) 15-ce073TX Gaming L...
p635
aVHP 15 Core i5 8th Gen - (8 GB/1 TB HDD/Windows 10 Home/2 GB Graphics) 15g-br104TX Laptop
p636
aVAsus Vivobook Max Core i3 7th Gen - (4 GB/1 TB HDD/Windows 10 Home) X541UA-DM1232T Laptop
p637
aVHP Spectre x360 Core i7 8th Gen - (16 GB/512 GB SSD/Windows 10 Home) 13-ap0101TU 2 in 1 Laptop
p638
aVMSI GS Core i7 8th Gen - (16 GB/512 GB SSD/Windows 10 Home/6 GB Graphics) GS65 8RE-084IN Gaming Laptop
p639
aVAvita Liber Core i5 7th Gen - (8 GB/256 GB SSD/Windows 10 Home) NS13A1IN006P Thin and Light Laptop
p640
aVApple Macbook Pro Core i5 8th Gen - (8 GB/256 GB SSD/Mac OS Mojave) MR9U2HN/A
p641
aVLenovo Ideapad 530s Core i5 8th Gen - (8 GB/512 GB SSD/Windows 10 Home/2 GB Graphics) IP 530S-14IKB Th...
p642
aVAcer Predator Helios 300 Core i5 7th Gen - (8 GB/1 TB HDD/128 GB SSD/Windows 10 Home/4 GB Graphics) G3...
p643
aVAvita Liber Core i5 7th Gen - (8 GB/512 GB SSD/Windows 10 Home) NS13A1IN015P Thin and Light Laptop
p644
aVAsus TUF Series Core i7 8th Gen - (16 GB/1 TB HDD/256 GB SSD/Windows 10 Home/6 GB Graphics) FX505GM-ES...
p645
aVDell Inspiron 15 3000 APU Dual Core A6 7th Gen - (4 GB/1 TB HDD/Windows 10 Home) 3565 Laptop
p646
asg60
(lp647
V\u20b974,990
p648
aV\u20b945,990
p649
aV\u20b929,500
p650
aV\u20b91,09,899
p651
aV\u20b958,989
p652
aV\u20b952,395
p653
aV\u20b935,990
p654
aV\u20b945,990
p655
aV\u20b92,29,990
p656
aV\u20b970,990
p657
aV\u20b91,04,990
p658
aV\u20b952,990
p659
aV\u20b91,37,098
p660
aV\u20b957,489
p661
aV\u20b931,999
p662
aV\u20b91,72,725
p663
aV\u20b91,49,990
p664
aV\u20b958,990
p665
aV\u20b91,59,990
p666
aV\u20b980,098
p667
aV\u20b91,29,999
p668
aV\u20b952,990
p669
aV\u20b91,25,990
p670
aV\u20b925,490
p671
assbag1
(g2
g3
Ntp672
Rp673
(dp674
g7
(dp675
g9
(lp676
V4.4
p677
aV4.7
p678
aV4.5
p679
aV4.1
p680
aV3.8
p681
aV4.5
p682
aV3.9
p683
aV4.4
p684
aV4.2
p685
aV4.1
p686
aV3.8
p687
aV4.2
p688
aV4.3
p689
aV3.3
p690
aV4.3
p691
aV4.2
p692
aV3.2
p693
aV4.4
p694
aV4.7
p695
aV4.1
p696
aV3.9
p697
ag12
aV4.3
p698
ag33
ag33
aV3.8
p699
ag31
ag31
ag12
ag12
ag33
aV4.1
p700
ag31
ag33
aV3.8
p701
ag12
ag12
asg34
(lp702
VHP 14 Core i5 8th Gen - (8 GB/256 GB SSD/Windows 10 Home) 14-bf120TU Laptop
p703
aVApple Macbook Pro Core i5 - (4 GB/500 GB HDD/OS X Mavericks) A1278
p704
aVApple MacBook Pro Core i5 7th Gen - (8 GB/128 GB SSD/Mac OS Sierra) MPXQ2HN/A
p705
aVLenovo Yoga 730 Core i7 8th Gen - (8 GB/512 GB SSD/Windows 10 Home) 730-13IKB 2 in 1 Laptop
p706
aVDell Inspiron 15 5000 Core i7 8th Gen - (8 GB/2 TB HDD/Windows 10 Home/4 GB Graphics) 5570 Laptop
p707
aVLenovo Ideapad 130 Core i5 8th Gen - (8 GB/1 TB HDD/Windows 10 Home/2 GB Graphics) 130-15IKB Laptop
p708
aVAsus TUF Core i5 8th Gen - (8 GB/1 TB HDD/128 GB SSD/Windows 10 Home/4 GB Graphics) FX504GD-E4363T Gam...
p709
aVLenovo Ideapad 320 APU Dual Core A6 - (4 GB/1 TB HDD/DOS) IP 320-15AST Laptop
p710
aVLenovo Legion Core i7 7th Gen - (8 GB/1 TB HDD/128 GB SSD/Windows 10 Home/4 GB Graphics) Y520 Gaming L...
p711
aVDell Inspiron 15 5000 Core i5 8th Gen - (8 GB/2 TB HDD/Windows 10 Home/4 GB Graphics) 5570 Laptop
p712
aVDell Inspiron Core i5 7th Gen - (8 GB/1 TB HDD/Windows 10 Home/2 GB Graphics) 5567 Laptop
p713
aVLenovo Core i7 7th Gen - (8 GB/2 TB HDD/Windows 10 Home/4 GB Graphics) 510 Laptop
p714
aVHP Spectre X360 Core i7 8th Gen - (16 GB/512 GB SSD/Windows 10 Home) 13-AP0033DX 2 in 1 Laptop
p715
aVLenovo Ideapad 330 APU Dual Core A6 - (4 GB/500 GB HDD/Windows 10 Home) 330-14AST Laptop
p716
aVDell Inspiron 15 5000 Core i7 8th Gen - (8 GB/2 TB HDD/128 GB SSD/Windows 10 Home/4 GB Graphics) 5570 ...
p717
aVHP Windows 10 Core i3 8th Gen - (4 GB/1 TB HDD/Windows 10) 14-CD0076TU Laptop
p718
aVDell Inspiron 15 5000 Core i5 8th Gen - (8 GB/2 TB HDD/Windows 10 Home/4 GB Graphics) 5570 Laptop
p719
aVLenovo Ideapad 330E Core i5 8th Gen - (8 GB/1 TB HDD/DOS/4 GB Graphics) 330-15IKB Laptop
p720
aVLenovo Ideapad 500 Core i5 6th Gen - (4 GB/1 TB HDD/Windows 10 Home/2 GB Graphics) 500-15ISK Laptop
p721
aVHP Pavilion Core i7 8th Gen - (8 GB/2 TB HDD/Windows 10 Home/4 GB Graphics) 15-CC134TX Laptop
p722
aVLenovo Core i5 7th Gen - (8 GB/512 GB SSD/Windows 10 Home) Yoga 720 2 in 1 Laptop
p723
aVDell Inspiron Core i5 7th Gen - (8 GB/1 TB HDD/Windows 10 Home/2 GB Graphics) 5567 Laptop
p724
aVLenovo Core i5 7th Gen - (8 GB/1 TB HDD/Windows 10 Home/4 GB Graphics) 510 Laptop
p725
aVLenovo Ideapad 330 Core i3 7th Gen - (4 GB + 16 GB Optane/1 TB HDD/Windows 10 Home/2 GB Graphics) 330-...
p726
asg60
(lp727
V\u20b965,490
p728
aV\u20b989,999
p729
aV\u20b91,19,785
p730
aV\u20b91,09,990
p731
aV\u20b970,000
p732
aV\u20b949,989
p733
aV\u20b971,990
p734
aV\u20b920,990
p735
aV\u20b995,900
p736
aV\u20b966,990
p737
aV\u20b959,990
p738
aV\u20b982,390
p739
aV\u20b91,49,990
p740
aV\u20b919,990
p741
aV\u20b981,999
p742
aV\u20b944,990
p743
aV\u20b968,990
p744
aV\u20b945,990
p745
aV\u20b957,990
p746
aV\u20b982,999
p747
aV\u20b993,900
p748
aV\u20b967,990
p749
aV\u20b966,999
p750
aV\u20b935,990
p751
assbag1
(g2
g3
Ntp752
Rp753
(dp754
g7
(dp755
g9
(lp756
V4.1
p757
aV4.4
p758
aV4.3
p759
aV4.2
p760
ag12
aV4.2
p761
aV4.3
p762
ag12
ag33
ag12
aV4.5
p763
aV4.3
p764
aV4.6
p765
aV4.4
p766
aV4.5
p767
aV3.9
p768
aV4.2
p769
ag33
ag31
ag12
ag12
ag33
aV4.3
p770
ag33
ag31
ag12
ag12
ag33
aV4.5
p771
ag33
ag12
asg34
(lp772
VDell Inspiron 13 5000 Core i5 8th Gen - (8 GB/1 TB HDD/Windows 10 Home) 5379 2 in 1 Laptop
p773
aVAsus ROG Core i7 6th Gen - (8 GB/1 TB HDD/Windows 10 Home/4 GB Graphics) GL552VX-DM261T Gaming Laptop
p774
aVAsus FX553 Core i7 7th Gen - (8 GB/1 TB HDD/Windows 10/4 GB Graphics) FX553VE-DM318T Gaming Laptop
p775
aVAvita Liber Core i5 7th Gen - (8 GB/256 GB SSD/Windows 10 Home) NS14A1IN007P Thin and Light Laptop
p776
aVDell Inspiron 5000 Core i5 7th Gen - (8 GB/1 TB HDD/Windows 10 Home) 5578 2 in 1 Laptop
p777
aVLenovo Ideapad 330 Core i3 7th Gen - (4 GB + 16 GB Optane/1 TB HDD/Windows 10 Home/2 GB Graphics) 330-...
p778
aVAcer Nitro 5 Core i7 8th Gen - (8 GB/1 TB HDD/128 GB SSD/Windows 10 Home/4 GB Graphics) AN515-52 Gamin...
p779
aVApple MacBook Pro Core i5 - (8 GB/256 GB SSD/Mac OS Mojave) MPXU2HN/A
p780
aVLenovo Ideapad 330 Core i3 7th Gen - (4 GB/1 TB HDD/Windows 10 Home) 330-15IKB Laptop
p781
aVAvita Liber Core i5 7th Gen - (8 GB/128 GB SSD/Windows 10 Home) NS14A1IN501P Thin and Light Laptop
p782
aVHP 15q APU Dual Core A6 - (4 GB/1 TB HDD/Windows 10 Home) 15q-by008AU Laptop
p783
aVHP 15g Core i3 6th Gen - (4 GB/1 TB HDD/Windows 10 Home) 15g-br001TU Laptop
p784
aVDell Inspiron 15 3000 Series Core i5 7th Gen - (4 GB/1 TB HDD/Ubuntu/2 GB Graphics) 3567 Laptop
p785
aVAvita Liber Core i5 7th Gen - (8 GB/512 GB SSD/Windows 10 Home) NS13A1IN014P Thin and Light Laptop
p786
aVMSI GL Core i7 7th Gen - (8 GB/1 TB HDD/Windows 10 Home/4 GB Graphics) GL62 7RDX Gaming Laptop
p787
aVMSI GV Series Core i7 7th Gen - (16 GB/1 TB HDD/128 GB SSD/Windows 10 Home/6 GB Graphics) GV62VR 7RF-1...
p788
aVMSI GL Core i7 7th Gen - (8 GB/1 TB HDD/128 GB SSD/Windows 10 Home/4 GB Graphics) GL62M 7REX Gaming La...
p789
aVMSI Core i7 7th Gen - (16 GB/1 TB HDD/256 GB SSD/Windows 10 Home/8 GB Graphics) GE73VR 7RF-086IN Gamin...
p790
aVAsus TUF Core i7 8th Gen - (8 GB/1 TB HDD/128 GB SSD/Windows 10 Home/4 GB Graphics) FX504GE-EN224T Gam...
p791
aVAvita Liber Core i5 7th Gen - (8 GB/256 GB SSD/Windows 10 Home) NS13A1IN006P Thin and Light Laptop
p792
aVAcer Predator Helios 300 Core i5 8th Gen - (8 GB/1 TB HDD/128 GB SSD/Windows 10 Home/4 GB Graphics) PH...
p793
aVDell Vostro 15 3000 Core i3 6th Gen - (4 GB/1 TB HDD/Windows 10 Home) 3568 Laptop
p794
aVMicrosoft Surface Book 2 Core i7 8th Gen - (8 GB/256 GB SSD/Windows 10 Pro/2 GB Graphics) 1832 2 in 1 ...
p795
aVAvita Liber Core i5 7th Gen - (8 GB/512 GB SSD/Windows 10 Home) NS13A1IN015P Thin and Light Laptop
p796
asg60
(lp797
V\u20b974,990
p798
aV\u20b968,000
p799
aV\u20b979,990
p800
aV\u20b945,990
p801
aV\u20b972,990
p802
aV\u20b935,990
p803
aV\u20b987,000
p804
aV\u20b91,35,500
p805
aV\u20b945,000
p806
aV\u20b945,990
p807
aV\u20b924,990
p808
aV\u20b934,990
p809
aV\u20b940,990
p810
aV\u20b952,990
p811
aV\u20b995,990
p812
aV\u20b91,19,990
p813
aV\u20b999,990
p814
aV\u20b91,85,990
p815
aV\u20b979,990
p816
aV\u20b958,990
p817
aV\u20b999,990
p818
aV\u20b930,990
p819
aV\u20b91,68,990
p820
aV\u20b952,990
p821
assbag1
(g2
g3
Ntp822
Rp823
(dp824
g7
(dp825
g9
(lp826
V3.8
p827
aV4.1
p828
aV4.1
p829
aV3.9
p830
aV4.2
p831
aV4.5
p832
aV4.6
p833
aV4.3
p834
aV4.5
p835
aV3.9
p836
aV4.2
p837
aV4.1
p838
ag12
aV4.4
p839
aV4.3
p840
aV4.2
p841
aV3.9
p842
aV3.7
p843
aV4.2
p844
aV3.9
p845
aV3.8
p846
aV3.8
p847
aV4.1
p848
aV4.1
p849
ag12
ag33
aV4.1
p850
ag33
ag33
aV4.1
p851
ag12
ag12
aV4.5
p852
ag12
ag12
aV4.3
p853
ag33
ag33
asg34
(lp854
VDell Inspiron 14 3000 Series Core i3 7th Gen - (4 GB/1 TB HDD/Windows 10 Home) 3467 Laptop
p855
aVDell Vostro 14 3000 Core i5 8th Gen - (4 GB/1 TB HDD/Linux/2 GB Graphics) 3478 Laptop
p856
aVAcer Aspire 5 Core i5 8th Gen - (4 GB/1 TB HDD/Windows 10 Home) A515-51 Laptop
p857
aVHP 15q APU Dual Core A9 - (4 GB/1 TB HDD/Windows 10 Home/2 GB Graphics) 15q-by002AX Laptop
p858
aVDell Inspiron 15 5000 Ryzen 3 Dual Core - (4 GB/1 TB HDD/Windows 10 Home) 5575 Laptop
p859
aVLenovo Yoga 730 Core i7 8th Gen - (8 GB/512 GB SSD/Windows 10 Home) 730-13IKB 2 in 1 Laptop
p860
aVAsus ROG Strix Core i7 8th Gen - (16 GB/1 TB HDD/256 GB SSD/Windows 10 Home/4 GB Graphics) GL503GE-EN2...
p861
aVDell Inspiron 13 7000 Core i7 8th Gen - (16 GB/512 GB SSD/Windows 10 Home) 7373 2 in 1 Laptop
p862
aVAsus VivoBook S14 Core i5 8th Gen - (8 GB/1 TB HDD/256 GB SSD/Windows 10 Home) S410UA-EB409T Laptop
p863
aVLenovo Ideapad 320 APU Dual Core A6 - (4 GB/1 TB HDD/DOS) IP 320-15AST Laptop
p864
aVLenovo Ideapad 330 Core i5 8th Gen - (8 GB/1 TB HDD/DOS/2 GB Graphics) 330-15IKB Laptop
p865
aVAsus Core i5 8th Gen - (8 GB/1 TB HDD/Windows 10 Home/2 GB Graphics) R540UB-DM723T Laptop
p866
aVDell Inspiron 15 3567 Core i3 7th Gen - (4 GB/1 TB HDD/Windows 10) 3567 Laptop
p867
aVAsus Ryzen 5 Quad Core - (8 GB/1 TB HDD/Windows 10 Home/4 GB Graphics) F570ZD-DM226T Gaming Laptop
p868
aVHP 15q Core i3 7th Gen - (4 GB/1 TB HDD/DOS) 15q-ds0015tu Laptop
p869
aVLenovo Ideapad 330 APU Dual Core A6 - (4 GB/500 GB HDD/Windows 10 Home) 330-14AST Laptop
p870
aVAcer Aspire 3 Ryzen 5 Quad Core - (8 GB/1 TB HDD/Windows 10 Home) A315-41 Laptop
p871
aVi-Life ZED Series Atom Quad Core - (2 GB/32 GB EMMC Storage/Windows 10 Home) ZED Air Pro Silin / ZED A...
p872
aVAsus Vivobook Core i3 7th Gen - (4 GB/1 TB HDD/Windows 10 Home) X507UA-EJ858TX507U Thin and Light Lapt...
p873
aVLenovo Ideapad 330E Core i5 8th Gen - (8 GB/1 TB HDD/DOS/4 GB Graphics) 330-15IKB Laptop
p874
aVDell Inspiron 15 3000 Series Core i5 8th Gen - (8 GB/1 TB HDD/Windows 10 Home) 3576 Laptop
p875
aVDell Vostro 15 3000 Series Core i3 7th Gen - (4 GB/1 TB HDD/Windows 10 Home) 3568 Laptop
p876
aVAsus ZenBook 13 Core i5 8th Gen - (8 GB/256 GB SSD/Windows 10 Home) UX333FA-A4046T Thin and Light Lapt...
p877
aVAsus Core i5 8th Gen - (4 GB/1 TB HDD/Windows 10 Home/2 GB Graphics) R540UB-DM1043T Laptop
p878
asg60
(lp879
V\u20b927,990
p880
aV\u20b935,990
p881
aV\u20b934,990
p882
aV\u20b921,990
p883
aV\u20b926,990
p884
aV\u20b91,09,990
p885
aV\u20b999,990
p886
aV\u20b979,990
p887
aV\u20b959,990
p888
aV\u20b920,990
p889
aV\u20b942,990
p890
aV\u20b930,699
p891
aV\u20b949,990
p892
aV\u20b928,990
p893
aV\u20b919,990
p894
aV\u20b935,990
p895
aV\u20b910,490
p896
aV\u20b927,990
p897
aV\u20b945,990
p898
aV\u20b945,390
p899
aV\u20b930,899
p900
aV\u20b969,990
p901
aV\u20b943,990
p902
assbag1
(g2
g3
Ntp903
Rp904
(dp905
g7
(dp906
g9
(lp907
V4.5
p908
aV3.8
p909
aV4.2
p910
aV4.6
p911
aV3.6
p912
aV3.8
p913
aV4.6
p914
aV3.6
p915
ag12
aV4.2
p916
aV4.6
p917
aV3.6
p918
aV4.3
p919
ag12
aV3.5
p920
aV4.5
p921
aV3.8
p922
aV3.9
p923
aV3.5
p924
aV4.3
p925
aV3.9
p926
ag33
ag31
aV3.5
p927
ag12
ag12
aV3.8
p928
ag33
ag33
ag12
ag33
ag33
aV4.6
p929
ag12
ag33
asg34
(lp930
ViBall CompBook Aer3 Pentium Quad Core - (4 GB/64 GB EMMC Storage/Windows 10 Home) Aer3 Laptop
p931
aVLenovo Ideapad 720S Core i7 8th Gen - (8 GB/512 GB SSD/Windows 10 Home) 720S-13IKB Thin and Light Lapt...
p932
aVHP HP 14s Core i3 7th Gen - (4 GB/1 TB HDD/Windows 10/4 GB Graphics) CF0055TU Laptop
p933
aVDell Inspiron 14 3000 Series Core i3 7th Gen - (4 GB/1 TB HDD/Windows 10 Home) 3467 Laptop
p934
aVDell Inspiron 15 5000 Core i5 8th Gen - (8 GB/2 TB HDD/Windows 10 Home/2 GB Graphics) 5570 Laptop
p935
aVMicrosoft Surface Go Pentium Gold - (8 GB/128 GB SSD/Windows 10 Home in S Mode) 1824 2 in 1 Laptop
p936
aVAsus ZenBook 14 Core i5 8th Gen - (8 GB/256 GB SSD/Windows 10 Home) UX433FA-A6113T Thin and Light Lapt...
p937
aVi-Life ZED Series Atom Quad Core - (2 GB/32 GB EMMC Storage/Windows 10 Home) ZED AIR Grin / ZED Air La...
p938
aVAsus ZenBook 13 Core i5 8th Gen - (8 GB/256 GB SSD/Windows 10 Home) UX331UAL-EG002T Thin and Light Lap...
p939
aVHP 15 Ryzen 3 Dual Core - (4 GB/1 TB HDD/Windows 10 Home) 15-db0186AU Laptop
p940
aVDell Inspiron 15 3000 Core i3 6th Gen - (4 GB/1 TB HDD/Windows 10 Home) 3567 Laptop
p941
aVAvita Liber Core i5 7th Gen - (8 GB/256 GB SSD/Windows 10 Home) NS14A1IN007P Thin and Light Laptop
p942
aVHP 14q Core i3 7th Gen - (4 GB/1 TB HDD/DOS) 14q-cs0009TU Thin and Light Laptop
p943
aVLenovo Ideapad 330s Core i3 8th Gen - (4 GB/1 TB HDD/Windows 10 Home) 330S-14IKB Laptop
p944
aViball Compbook Celeron Dual Core 7th Gen - (3 GB/32 GB EMMC Storage/Windows 10) Marvel6 V2.0 Laptop
p945
aVAvita Liber Core i5 7th Gen - (8 GB/128 GB SSD/Windows 10 Home) NS14A1IN501P Thin and Light Laptop
p946
aVDell Inspiron 15 5000 Ryzen 5 Quad Core - (8 GB/1 TB HDD/Windows 10 Home) 5575 Laptop
p947
aVRDP ThinBook Atom Quad Core - (2 GB/32 GB EMMC Storage/Windows 10 Home) 1450-EC1 Thin and Light Laptop
p948
aVAsus VivoBook S14 Core i5 8th Gen - (8 GB/1 TB HDD/256 GB SSD/Windows 10 Home) S410UA-EB666T Laptop
p949
aViBall CompBook Atom Quad Core - (2 GB/32 GB EMMC Storage/Windows 10 Home) I360 2 in 1 Laptop
p950
aVDell Inspiron 15 3000 Series Core i3 7th Gen - (4 GB/1 TB HDD/Windows 10 Home) 3567 Laptop
p951
aVAvita Liber Core i5 7th Gen - (8 GB/512 GB SSD/Windows 10 Home) NS13A1IN014P Thin and Light Laptop
p952
aVAsus Core i3 6th Gen - (4 GB/1 TB HDD/Windows 10 Home/2 GB Graphics) X507UB-EJ213T Laptop
p953
aVHP 15q Core i3 7th Gen - (8 GB/1 TB HDD/DOS) 15q-ds0017TU Laptop
p954
asg60
(lp955
V\u20b916,990
p956
aV\u20b995,695
p957
aV\u20b936,699
p958
aV\u20b930,990
p959
aV\u20b962,317
p960
aV\u20b949,999
p961
aV\u20b970,990
p962
aV\u20b911,490
p963
aV\u20b967,990
p964
aV\u20b931,900
p965
aV\u20b939,085
p966
aV\u20b945,990
p967
aV\u20b934,990
p968
aV\u20b911,990
p969
aV\u20b945,990
p970
aV\u20b946,998
p971
aV\u20b913,490
p972
aV\u20b962,990
p973
aV\u20b914,400
p974
aV\u20b932,990
p975
aV\u20b952,990
p976
aV\u20b933,490
p977
assbag1
(g2
g3
Ntp978
Rp979
(dp980
g7
(dp981
g9
(lp982
V4.1
p983
aV4.5
p984
aV3.7
p985
ag12
aV4.8
p986
aV4.6
p987
aV4.2
p988
aV3.9
p989
aV3.7
p990
aV3.4
p991
aV4.2
p992
aV4.9
p993
aV2.8
p994
aV4.1
p995
aV4.8
p996
aV4.2
p997
aV4.2
p998
ag12
ag12
aV4.3
p999
ag12
aV4.6
p1000
ag33
ag33
ag12
ag12
ag33
aV4.2
p1001
ag12
ag12
aV4.3
p1002
ag33
ag33
aV4.1
p1003
ag33
ag33
asg34
(lp1004
VHP 15 Core i3 6th Gen - (4 GB/2 TB HDD/DOS) 15-bs615TU Laptop
p1005
aVLenovo Yoga 730 Core i7 8th Gen - (8 GB/512 GB SSD/Windows 10 Home) 730-13IKB 2 in 1 Laptop
p1006
aVAsus X Series Pentium Quad Core 7th Gen - (4 GB/500 GB HDD/Windows 10 Home) X541NA-GO012T Laptop
p1007
aVAsus Core i3 6th Gen - (8 GB/1 TB HDD/Windows 10 Home/2 GB Graphics) X507UB-EJ186T Laptop
p1008
aVApple MacBook Air Core i5 8th Gen - (8 GB/128 GB SSD/Mac OS Mojave) MRE82HN/A
p1009
aVAsus ZenBook 13 Core i5 8th Gen - (8 GB/512 GB SSD/Windows 10 Home) UX331UAL-EG058T Thin and Light Lap...
p1010
aVHP G6 Core i3 7th Gen - (4 GB/1 TB HDD/DOS) 240 G6 Laptop
p1011
aVLenovo Ideapad 320 APU Dual Core A6 - (4 GB/1 TB HDD/DOS) IP 320-15AST Laptop
p1012
aVAcer Acer Aspire ES 15 Core i3 6th Gen - (4 GB/1 TB HDD/Windows 10) NX.GD0SI.012 Laptop
p1013
aVHP G6 Core i3 7th Gen - (4 GB/1 TB HDD/DOS) 250-G6 Laptop
p1014
aVLenovo Ideapad 330 APU Dual Core A6 7th Gen - (4 GB/1 TB HDD/Windows 10 Home) 81D6002TIN Laptop
p1015
aVLenovo Ideapad 330 APU Dual Core A6 - (4 GB/500 GB HDD/Windows 10 Home) 330-14AST Laptop
p1016
aVAsus Vivobook Core i5 8th Gen - (8 GB/1 TB HDD/Windows 10 Home/2 GB Graphics) X510UN-EJ328T Laptop
p1017
aVHP 14q Core i5 8th Gen - (4 GB/1 TB HDD/Windows 10 Home) 14q-cs0007TU Laptop
p1018
aVLenovo Ideapad Core i3 6th Gen - (4 GB/1 TB HDD/DOS) IP 320E Laptop
p1019
aVLenovo 330 Pentium Quad Core 8th Gen - (4 GB/1 TB HDD/Windows 10 Home) Ideapad 330 Laptop
p1020
aVHP Pavilion 15 Core i5 8th Gen - (8 GB/1 TB HDD/Windows 10 Home/4 GB Graphics) 15-BC406TX Gaming Lapto...
p1021
aVLenovo Ideapad 330E Core i5 8th Gen - (8 GB/1 TB HDD/DOS/4 GB Graphics) 330-15IKB Laptop
p1022
aVLenovo Ideapad APU Dual Core A4 7th Gen - (4 GB/1 TB HDD/Windows 10) 330 Laptop
p1023
aVLenovo Ideapad 330 APU Dual Core A6 7th Gen - (4 GB/1 TB HDD/DOS) 81D6007JIN Laptop
p1024
aVLenovo Ideapad 330E Core i5 8th Gen - (8 GB/2 TB HDD/DOS/2 GB Graphics) 81DE01JVIN Gaming Laptop
p1025
aVLenovo Ideapad 330 Core i3 7th Gen - (4 GB + 16 GB Optane/1 TB HDD/Windows 10 Home/2 GB Graphics) 330-...
p1026
aVLenovo Legion Y530 Core i5 8th Gen - (8 GB/1 TB HDD/128 GB SSD/Windows 10 Home/4 GB Graphics) Y530-15I...
p1027
aVLenovo 330 Core i3 7th Gen - (4 GB/1 TB HDD/Windows 10) Ideapad Laptop
p1028
asg60
(lp1029
V\u20b931,990
p1030
aV\u20b91,09,990
p1031
aV\u20b919,999
p1032
aV\u20b936,819
p1033
aV\u20b91,11,900
p1034
aV\u20b975,990
p1035
aV\u20b927,490
p1036
aV\u20b920,990
p1037
aV\u20b927,300
p1038
aV\u20b929,444
p1039
aV\u20b923,490
p1040
aV\u20b919,990
p1041
aV\u20b952,890
p1042
aV\u20b944,990
p1043
aV\u20b932,990
p1044
aV\u20b931,990
p1045
aV\u20b962,990
p1046
aV\u20b945,990
p1047
aV\u20b922,990
p1048
aV\u20b922,498
p1049
aV\u20b943,990
p1050
aV\u20b935,990
p1051
aV\u20b998,890
p1052
aV\u20b932,490
p1053
assbag1
(g2
g3
Ntp1054
Rp1055
(dp1056
g7
(dp1057
g9
(lp1058
V4.2
p1059
aV4.9
p1060
aV3.5
p1061
aV4.1
p1062
aV4.3
p1063
aV4.1
p1064
aV4.1
p1065
ag12
aV4.5
p1066
aV4.4
p1067
aV4.3
p1068
aV3.8
p1069
aV4.1
p1070
aV3.5
p1071
ag12
ag33
aV4.9
p1072
ag33
ag33
aV4.4
p1073
ag33
ag33
aV4.3
p1074
ag33
ag33
aV4.1
p1075
ag33
ag33
asg34
(lp1076
VDell Inspiron 15 5000 Core i5 8th Gen - (8 GB/1 TB HDD/Windows 10 Home) 5570 Laptop
p1077
aVDell Inspiron 15 5000 Series Core i5 8th Gen - (4 GB + 16 GB Optane/2 TB HDD/Windows 10 Home/2 GB Grap...
p1078
aVApple MacBook Air Core i5 8th Gen - (8 GB/256 GB SSD/Mac OS Mojave) MREC2HN/A
p1079
aVAvita Liber Core i5 7th Gen - (8 GB/256 GB SSD/Windows 10 Home) NS14A1IN007P Thin and Light Laptop
p1080
aVAsus Core i3 6th Gen - (4 GB/1 TB HDD/Windows 10 Home) X541UA-DM1233T Laptop
p1081
aVDell Inspiron 15 5000 Core i5 8th Gen - (8 GB/1 TB HDD/Windows 10 Home/2 GB Graphics) 5570 Laptop
p1082
aVAsus ZenBook 13 Core i7 8th Gen - (8 GB/512 GB SSD/Windows 10 Home/2 GB Graphics) UX333FN-A4160T Thin ...
p1083
aVAvita Liber Core i5 7th Gen - (8 GB/128 GB SSD/Windows 10 Home) NS14A1IN501P Thin and Light Laptop
p1084
aVAsus ZenBook 13 Core i5 8th Gen - (8 GB/512 GB SSD/Windows 10 Home) UX333FA-A4184T Thin and Light Lapt...
p1085
aVAsus ZenBook 13 Core i7 8th Gen - (8 GB/512 GB SSD/Windows 10 Home/2 GB Graphics) UX333FN-A4118T Thin ...
p1086
aVDell Inspiron 5000 Core i7 7th Gen - (16 GB/2 TB HDD/Windows 10 Home/4 GB Graphics) 5567 Laptop
p1087
aVAsus E203NAH Celeron Dual Core 7th Gen - (2 GB/Windows 10 Home) E203NAH-FD010T Laptop
p1088
aVMSI Raider Core i7 8th Gen - (16 GB/1 TB HDD/512 GB SSD/Windows 10 Home/8 GB Graphics) GE75 Gaming Lap...
p1089
aVAvita Liber Core i5 7th Gen - (8 GB/512 GB SSD/Windows 10 Home) NS13A1IN014P Thin and Light Laptop
p1090
aVDell G3 15 3000 Series Core i5 8th Gen - (8 GB + 16 GB Optane/1 TB HDD/Windows 10 Home/4 GB Graphics) ...
p1091
aVAcer Aspire 3 Pentium Quad Core - (4 GB/1 TB HDD/Linux) A315-32 Laptop
p1092
aVAsus Vivobook S14 Core i3 7th Gen - (8 GB/1 TB HDD/128 GB SSD/Windows 10 Home) S410UA-EB266T Laptop
p1093
aVAvita Liber Core i5 7th Gen - (8 GB/256 GB SSD/Windows 10 Home) NS13A1IN006P Thin and Light Laptop
p1094
aVDell Inspiron 7000 Core i7 7th Gen - (8 GB/1 TB HDD/128 GB SSD/Windows 10 Home/4 GB Graphics) 7560 Lap...
p1095
aVHP Pavilion 15 Ryzen 5 Quad Core - (8 GB/1 TB HDD/128 GB SSD/Windows 10 Home) 15-cw0027AU Laptop
p1096
aVHP Notebook Core i5 7th Gen - (8 GB/1 TB HDD/Windows 10 Home) 1WP58UA Laptop
p1097
aVLenovo APU Dual Core A9 7th Gen - (4 GB/1 TB HDD/DOS) IP 320E Laptop
p1098
aVAsus Asus X Celeron Dual Core 7th Gen - (4 GB/1 TB HDD/Windows 10) F541NA-GO653T Laptop
p1099
aVAvita Liber Core i5 7th Gen - (8 GB/512 GB SSD/Windows 10 Home) NS13A1IN015P Thin and Light Laptop
p1100
asg60
(lp1101
V\u20b955,499
p1102
aV\u20b959,990
p1103
aV\u20b91,31,999
p1104
aV\u20b945,990
p1105
aV\u20b934,746
p1106
aV\u20b955,000
p1107
aV\u20b992,791
p1108
aV\u20b945,990
p1109
aV\u20b978,991
p1110
aV\u20b989,990
p1111
aV\u20b992,490
p1112
aV\u20b919,875
p1113
aV\u20b92,49,990
p1114
aV\u20b952,990
p1115
aV\u20b976,990
p1116
aV\u20b926,800
p1117
aV\u20b949,990
p1118
aV\u20b958,990
p1119
aV\u20b981,889
p1120
aV\u20b961,490
p1121
aV\u20b972,404
p1122
aV\u20b922,890
p1123
aV\u20b920,740
p1124
aV\u20b952,990
p1125
assbag1
(g2
g3
Ntp1126
Rp1127
(dp1128
g7
(dp1129
g9
(lp1130
V3.8
p1131
aV4.5
p1132
aV1.8
p1133
aV3.9
p1134
ag12
aV1
p1135
aV3.9
p1136
aV4.2
p1137
aV4.3
p1138
aV4.3
p1139
ag33
aV4.2
p1140
ag12
ag12
ag12
ag33
aV3.9
p1141
ag12
ag12
aV3.9
p1142
ag12
ag12
ag12
ag31
ag31
aV4.3
p1143
ag33
ag12
asg34
(lp1144
VIball Compbook Aer3 2018 Pentium Quad Core - (4 GB/64 GB EMMC Storage/Windows 10 Pro) CompBook Aer3 La...
p1145
aVHP Pavilion 13 Core i5 8th Gen - (8 GB/128 GB SSD/Windows 10 Home) 13-an0045tu Thin and Light Laptop
p1146
aVHP Notebook Core i5 7th Gen - (8 GB/1 TB HDD/Windows 10 Home) 1TJ82UA Laptop
p1147
aVLenovo Yoga 730 Core i7 8th Gen - (8 GB/512 GB SSD/Windows 10 Home) 730-13IKB 2 in 1 Laptop
p1148
aVAsus ZenBook 14 Core i5 8th Gen - (8 GB/512 GB SSD/Windows 10 Home) UX433FA-A6106T Thin and Light Lapt...
p1149
aVAsus X510UA Core i3 8th Gen - (4 GB/1 TB HDD/Windows 10 Home) X510UA-EJ1070T Laptop
p1150
aVDell Inspiron 7000 Core i7 6th Gen - (8 GB/1 TB HDD/8 GB SSD/Windows 10 Home/4 GB Graphics) 7559 Gamin...
p1151
aVHP 15 Core i5 7th Gen - (4 GB/1 TB HDD/Windows 10 Home) 15-bs669tu Laptop
p1152
aVDell Inspiron 13 7000 Core i5 8th Gen - (8 GB/256 GB SSD/Windows 10 Home) 7373 2 in 1 Laptop
p1153
aVLenovo Ideapad 320 APU Dual Core A6 - (4 GB/1 TB HDD/DOS) IP 320-15AST Laptop
p1154
aVAsus VivoBook 15 Ryzen 3 Dual Core - (4 GB/1 TB HDD/Windows 10 Home) X505ZA-EJ493TX505ZA Laptop
p1155
aVHP 15 Core i3 7th Gen - (4 GB/1 TB HDD/Windows 10 Home/2 GB Graphics) 15-DA0447TX Laptop
p1156
aVAsus ZenBook 14 Core i7 8th Gen - (8 GB/512 GB SSD/Windows 10 Home/2 GB Graphics) UX433FN-A6052T Thin ...
p1157
aVLenovo Ideapad 330 APU Dual Core A6 - (4 GB/500 GB HDD/Windows 10 Home) 330-14AST Laptop
p1158
aVHP Pavilion x360 Core i5 7th Gen - (8 GB/1 TB HDD/8 GB SSD/Windows 10 Home/2 GB Graphics) 14-ba073TX 2...
p1159
aVHP 15 Core i5 8th Gen - (4 GB/1 TB HDD/Windows 10 Home) 15q-bu100TU Laptop
p1160
aVAsus VivoBook S15 Core i5 8th Gen - (8 GB/1 TB HDD/256 GB SSD/Windows 10 Home/2 GB Graphics) S530FN-BQ...
p1161
aVHP Notebook Core i5 7th Gen - (8 GB/1 TB HDD/Windows 10 Home) 2PE35UA Laptop
p1162
aVZentality Air Atom Quad Core - (2 GB/32 GB EMMC Storage/Windows 10 Home) C114 Laptop
p1163
aVLenovo Ideapad 330E Core i5 8th Gen - (8 GB/1 TB HDD/DOS/4 GB Graphics) 330-15IKB Laptop
p1164
aVAvita Liber Core i5 7th Gen - (8 GB/512 GB SSD/Windows 10 Home) NS13A1IN014P Thin and Light Laptop
p1165
aVHP Omen Core i5 7th Gen - (8 GB/1 TB HDD/128 GB SSD/Windows 10 Home/4 GB Graphics) 15-ce071TX Gaming L...
p1166
aVHP Notebook Core i5 7th Gen - (8 GB/1 TB HDD/Windows 10 Home) 17-x116dx Laptop
p1167
aVLenovo Ideapad 330 Core i3 7th Gen - (4 GB + 16 GB Optane/1 TB HDD/Windows 10 Home/2 GB Graphics) 330-...
p1168
asg60
(lp1169
V\u20b918,999
p1170
aV\u20b976,012
p1171
aV\u20b969,911
p1172
aV\u20b91,09,990
p1173
aV\u20b975,990
p1174
aV\u20b933,990
p1175
aV\u20b994,990
p1176
aV\u20b939,990
p1177
aV\u20b986,339
p1178
aV\u20b920,990
p1179
aV\u20b929,990
p1180
aV\u20b939,490
p1181
aV\u20b999,000
p1182
aV\u20b919,990
p1183
aV\u20b972,990
p1184
aV\u20b944,253
p1185
aV\u20b971,990
p1186
aV\u20b971,882
p1187
aV\u20b914,160
p1188
aV\u20b945,990
p1189
aV\u20b952,990
p1190
aV\u20b91,02,551
p1191
aV\u20b970,554
p1192
aV\u20b935,990
p1193
assbag1
(g2
g3
Ntp1194
Rp1195
(dp1196
g7
(dp1197
g9
(lp1198
V1.9
p1199
aV4.3
p1200
aV4.3
p1201
aV4.2
p1202
aV3.9
p1203
aV3.9
p1204
aV3.7
p1205
aV3.9
p1206
aV4.4
p1207
aV4.6
p1208
aV4.3
p1209
aV3.7
p1210
ag33
ag33
aV4.6
p1211
ag33
ag33
aV4.4
p1212
ag33
ag33
aV3.9
p1213
ag12
ag33
aV4.3
p1214
ag12
ag33
asg34
(lp1215
VMicrosoft Surface Book 2 Core i7 8th Gen - (16 GB/256 GB SSD/Windows 10 Pro/6 GB Graphics) 1793 2 in 1...
p1216
aVAsus ASUS TUF Gaming Ryzen 5 Quad Core - (8 GB/1 TB HDD/Windows 10/4 GB Graphics) FX705DY-AU027T Gamin...
p1217
aVAsus Vivobook Flip 14 Core i3 8th Gen - (8 GB/512 GB SSD/Windows 10 Home) TP412UA-EC305T 2 in 1 Laptop
p1218
aVIball Premio v2.0 Pentium Quad Core 4th Gen - (4 GB/500 GB HDD/Windows 10) Premio V2.0 Laptop
p1219
aVAcer Nitro 5 Core i7 7th Gen - (8 GB/1 TB HDD/Windows 10 Home/2 GB Graphics) AN515-51 Gaming Laptop
p1220
aVAvita Liber Core i5 7th Gen - (8 GB/256 GB SSD/Windows 10 Home) NS14A1IN007P Thin and Light Laptop
p1221
aVHP ENVY x360 APU Quad Core FX - (8 GB/1 TB HDD/Windows 10 Home) 1KS87UA 2 in 1 Laptop
p1222
aVHP Pavilion x360 Core i5 7th Gen - (8 GB/128 GB SSD/Windows 10 Home/2 GB Graphics) 15-br095ms 2 in 1 L...
p1223
aVHP Notebook Core i7 - (6 GB/1 TB HDD/Windows 10 Home) 1TJ86UA Laptop
p1224
aVAvita Liber Core i5 7th Gen - (8 GB/128 GB SSD/Windows 10 Home) NS14A1IN501P Thin and Light Laptop
p1225
aVAsus Vivobook Core i7 8th Gen - (8 GB/1 TB HDD/Windows 10 Home/2 GB Graphics) X510UN-EJ329T Laptop
p1226
aVMicrosoft Surface Pro Core i7 7th Gen - (16 GB/512 GB SSD/Windows 10 Pro) 1796 2 in 1 Laptop
p1227
aVLenovo ThinkPad 13 Core i5 - (4 GB/128 GB SSD/Windows 7 Professional) 20GJ000RUS Laptop
p1228
aVAcer Aspire E 15 Core i3 6th Gen - (4 GB/1 TB HDD/Linux) E5-576 Laptop
p1229
aVDell Inspiron 15 3000 Series Core i3 6th Gen - (4 GB/1 TB HDD/Windows 10 Home) 3567 Laptop
p1230
aVAvita Liber Core i5 7th Gen - (8 GB/512 GB SSD/Windows 10 Home) NS13A1IN014P Thin and Light Laptop
p1231
aVAsus Core i5 8th Gen - (4 GB/1 TB HDD/Windows 10 Home) X507UA-EJ500T Laptop
p1232
aVLenovo Z51-70 Core i5 5th Gen - (4 GB/1 TB HDD/Windows 10 Home/2 GB Graphics) Z5170 Laptop
p1233
aVAcer Spin 1 Pentium Quad Core - (4 GB/500 GB HDD/Windows 10 Home) SP111-31 2 in 1 Laptop
p1234
aVAvita Liber Core i5 7th Gen - (8 GB/256 GB SSD/Windows 10 Home) NS13A1IN006P Thin and Light Laptop
p1235
aVMicrosoft Surface Core i5 7th Gen - (8 GB/256 GB SSD/Windows 10 S) 1769 Thin and Light Laptop
p1236
aVDell G3 Series Core i5 8th Gen - (8 GB/1 TB HDD/128 GB SSD/Windows 10 Home/4 GB Graphics) 3579 Gaming ...
p1237
aVAsus ROG Strix Scar II Core i7 8th Gen - (16 GB/1 TB HDD/512 GB SSD/Windows 10 Home/8 GB Graphics) GL5...
p1238
aVDell G3 Series Core i7 8th Gen - (16 GB/1 TB HDD/256 GB SSD/Windows 10 Home/4 GB Graphics) 3579 Gaming...
p1239
asg60
(lp1240
V\u20b92,18,999
p1241
aV\u20b966,666
p1242
aV\u20b959,990
p1243
aV\u20b919,599
p1244
aV\u20b969,999
p1245
aV\u20b945,990
p1246
aV\u20b981,398
p1247
aV\u20b982,985
p1248
aV\u20b975,419
p1249
aV\u20b945,990
p1250
aV\u20b963,400
p1251
aV\u20b91,82,999
p1252
aV\u20b987,947
p1253
aV\u20b931,996
p1254
aV\u20b931,990
p1255
aV\u20b952,990
p1256
aV\u20b937,488
p1257
aV\u20b944,000
p1258
aV\u20b924,990
p1259
aV\u20b958,990
p1260
aV\u20b91,14,999
p1261
aV\u20b92,09,990
p1262
aV\u20b91,07,990
p1263
assbag1
(g2
g3
Ntp1264
Rp1265
(dp1266
g7
(dp1267
g9
(lp1268
V3.5
p1269
aV4.5
p1270
aV4.4
p1271
ag12
aV3.9
p1272
aV3.2
p1273
aV3.9
p1274
ag12
aV4.2
p1275
aV3.9
p1276
aV4.4
p1277
aV4.2
p1278
aV4.3
p1279
aV4.5
p1280
aV3.8
p1281
ag12
aV4.1
p1282
aV4.3
p1283
aV3.9
p1284
ag12
ag31
ag12
ag12
ag33
aV3.5
p1285
ag33
ag33
aV3.9
p1286
ag12
ag12
aV4.5
p1287
ag33
ag33
asg34
(lp1288
VIball Netbook Atom Quad Core - (2 GB/32 GB EMMC Storage/Windows 10 Home) CompBook Exemplaire Laptop
p1289
aVLenovo Yoga 730 Core i7 8th Gen - (8 GB/512 GB SSD/Windows 10 Home) 730-13IKB 2 in 1 Laptop
p1290
aVDell XPS 15 Core i7 8th Gen - (16 GB/256 GB SSD/Windows 10 Home/4 GB Graphics) 9575-7354BLK-PUS 2 in 1...
p1291
aVLenovo Core i5 7th Gen - (8 GB/2 TB HDD/Windows 10 Home/4 GB Graphics) IP 520 Laptop
p1292
aVLenovo Yoga 520 Core i3 8th Gen - (4 GB/1 TB HDD/Windows 10 Home) 520-14IKB 2 in 1 Laptop
p1293
aVLenovo Ideapad 320 APU Dual Core A6 - (4 GB/1 TB HDD/DOS) IP 320-15AST Laptop
p1294
aVAsus S510UN Core i5 8th Gen - (8 GB/1 TB HDD/256 GB SSD/Windows 10 Home/16 GB Graphics) S510UN-BQ265T ...
p1295
aVHP ATA APU Quad Core A6 - (4 GB/DOS) 15-BA044AU Laptop
p1296
aVDell Inspiron 15 3000 Core i3 6th Gen - (4 GB/1 TB HDD/Windows 10 Home) 3567 Laptop
p1297
aVLenovo Core i3 6th Gen - (4 GB/1 TB HDD/Windows 10 Home) IP 320E Laptop
p1298
aVAsus ASUS TUF Gaming Core i5 8th Gen - (8 GB/1 TB HDD/256 GB SSD/Windows 10 Home/4 GB Graphics) E4992T...
p1299
aVLenovo Ideapad 330 APU Dual Core A6 - (4 GB/500 GB HDD/Windows 10 Home) 330-14AST Laptop
p1300
aVLenovo APU Dual Core A9 6th Gen - (4 GB/1 TB HDD/Windows 10 Home) Yoga 510 2 in 1 Laptop
p1301
aVDell 5000 Core i5 6th Gen - (8 GB/1 TB HDD/Windows 10 Home) 5568 2 in 1 Laptop
p1302
aVDell 3000 Core i3 6th Gen - (4 GB/1 TB HDD/Ubuntu) 3568 Laptop
p1303
aVLenovo Ideapad 330E Core i5 8th Gen - (8 GB/1 TB HDD/DOS/4 GB Graphics) 330-15IKB Laptop
p1304
aVLenovo ThinkPad 11e (4th Gen) Celeron Quad Core - (4 GB/128 GB SSD/Windows 10 Pro) 20HV000MUS Laptop
p1305
aVAsus X Series Core i3 7th Gen - (4 GB/1 TB HDD/Windows 10 Home) X510UA-EJ796T Laptop
p1306
aVHP Core i5 6th Gen - (4 GB/500 GB HDD/DOS) 240 G5 Laptop
p1307
aVHP 240 G5 Series Core i3 6th Gen - (4 GB/1 TB HDD/DOS) 3MT94PA Laptop
p1308
aVHP EliteBook Core i7 6th Gen - (8 GB/256 GB SSD/Windows 10 Pro) 820 G3 Business Laptop
p1309
aVLenovo Ideapad 330 Core i3 7th Gen - (4 GB + 16 GB Optane/1 TB HDD/Windows 10 Home/2 GB Graphics) 330-...
p1310
aVHP 15 Pentium Quad Core - (4 GB/1 TB HDD/DOS) 15Q-BU009TU Laptop
p1311
aVAcer Aspire 5 Core i5 8th Gen - (8 GB/1 TB HDD/Windows 10 Home/2 GB Graphics) A515-52G Laptop
p1312
asg60
(lp1313
V\u20b912,999
p1314
aV\u20b91,09,990
p1315
aV\u20b91,69,999
p1316
aV\u20b970,990
p1317
aV\u20b944,989
p1318
aV\u20b920,990
p1319
aV\u20b975,950
p1320
aV\u20b926,400
p1321
aV\u20b930,490
p1322
aV\u20b930,555
p1323
aV\u20b972,910
p1324
aV\u20b919,990
p1325
aV\u20b941,000
p1326
aV\u20b971,950
p1327
aV\u20b929,700
p1328
aV\u20b945,990
p1329
aV\u20b949,999
p1330
aV\u20b932,830
p1331
aV\u20b944,000
p1332
aV\u20b929,000
p1333
aV\u20b91,09,525
p1334
aV\u20b935,990
p1335
aV\u20b924,107
p1336
aV\u20b952,999
p1337
assbag1
(g2
g3
Ntp1338
Rp1339
(dp1340
g7
(dp1341
g9
(lp1342
sg34
(lp1343
sg60
(lp1344
ssbag1
(g2
g3
Ntp1345
Rp1346
(dp1347
g7
(dp1348
g9
(lp1349
sg34
(lp1350
sg60
(lp1351
ssbag1
(g2
g3
Ntp1352
Rp1353
(dp1354
g7
(dp1355
g9
(lp1356
sg34
(lp1357
sg60
(lp1358
ssbag1
(g2
g3
Ntp1359
Rp1360
(dp1361
g7
(dp1362
g9
(lp1363
sg34
(lp1364
sg60
(lp1365
ssbag1
(g2
g3
Ntp1366
Rp1367
(dp1368
g7
(dp1369
g9
(lp1370
sg34
(lp1371
sg60
(lp1372
ssbag1
(g2
g3
Ntp1373
Rp1374
(dp1375
g7
(dp1376
g9
(lp1377
sg34
(lp1378
sg60
(lp1379
ssbag1
(g2
g3
Ntp1380
Rp1381
(dp1382
g7
(dp1383
g9
(lp1384
sg34
(lp1385
sg60
(lp1386
ssbag1
(g2
g3
Ntp1387
Rp1388
(dp1389
g7
(dp1390
g9
(lp1391
sg34
(lp1392
sg60
(lp1393
ssbag1
(g2
g3
Ntp1394
Rp1395
(dp1396
g7
(dp1397
g9
(lp1398
sg34
(lp1399
sg60
(lp1400
ssbag1
(g2
g3
Ntp1401
Rp1402
(dp1403
g7
(dp1404
g9
(lp1405
sg34
(lp1406
sg60
(lp1407
ssbag1
(g2
g3
Ntp1408
Rp1409
(dp1410
g7
(dp1411
g9
(lp1412
sg34
(lp1413
sg60
(lp1414
ssba.